(lp0
F-532.25
aF-517.39
aF-516.25
aF-515.31
aF-522.23
aF-515.69
aF-518.67
aF-512.04
aF-521.45
aF-518.11
aF-514.26
aF-509.04
aF-519.05
aF-511.38
aF-514.88
aF-517.21
aF-517.35
aF-513.77
aF-512.55
aF-517.19
a.