(lp0
F-528.84
aF-521.89
aF-518.73
aF-513.41
aF-522.01
aF-517.79
aF-512.99
aF-513.2
aF-515.29
aF-510.62
aF-510.17
aF-519.55
aF-520.64
aF-515.19
aF-516.86
aF-513.39
aF-515.8
aF-517.78
aF-513.96
aF-510.77
a.