(lp0
F-520.49
aF-520.53
aF-511.91
aF-512.48
aF-516.06
aF-509.59
aF-511.69
aF-516.26
aF-514.55
aF-513.4
aF-515.72
aF-518.87
aF-516.53
aF-517.67
aF-512.04
aF-513.58
aF-514.21
aF-520.19
aF-518.95
aF-519.07
a.